target datalayout = "e-m:e-p270:32:32-p271:32:32-p272:64:64-i64:64-i128:128-f80:128-n8:16:32:64-S128"
target triple = "x86_64-pc-linux-gnu"

%struct.gz_state = type { %struct.gzFile_s, i32, i32, ptr, i32, i32, ptr, ptr, i32, i32, i64, i32, i32, i32, i32, i64, i32, i32, ptr, %struct.z_stream_s }
%struct.gzFile_s = type { i32, ptr, i64 }
%struct.z_stream_s = type { ptr, i32, i64, ptr, i32, i64, ptr, ptr, ptr, ptr, ptr, i32, i64, i64, i32 }

@.str.1 = private unnamed_addr constant [31 x i8] c"out of room to push characters\00", align 1

; Function Attrs: nounwind uwtable
define internal i32 @gz_skip(ptr noundef %0, i64 noundef %1) #0 {
  %3 = alloca i32, align 4
  %4 = alloca ptr, align 8
  %5 = alloca i64, align 8
  %6 = alloca i32, align 4
  %7 = alloca i32, align 4
  store ptr %0, ptr %4, align 8, !tbaa !8
  store i64 %1, ptr %5, align 8, !tbaa !35
  call void @llvm.lifetime.start.p0(i64 4, ptr %6) #8
  br label %8

8:                                                ; preds = %78, %2
  %9 = load i64, ptr %5, align 8, !tbaa !35
  %10 = icmp ne i64 %9, 0
  br i1 %10, label %11, label %79

11:                                               ; preds = %8
  %12 = load ptr, ptr %4, align 8, !tbaa !8
  %13 = getelementptr inbounds nuw %struct.gz_state, ptr %12, i32 0, i32 0
  %14 = getelementptr inbounds nuw %struct.gzFile_s, ptr %13, i32 0, i32 0
  %15 = load i32, ptr %14, align 8, !tbaa !23
  %16 = icmp ne i32 %15, 0
  br i1 %16, label %17, label %59

17:                                               ; preds = %11
  %18 = load ptr, ptr %4, align 8, !tbaa !8
  %19 = getelementptr inbounds nuw %struct.gz_state, ptr %18, i32 0, i32 0
  %20 = getelementptr inbounds nuw %struct.gzFile_s, ptr %19, i32 0, i32 0
  %21 = load i32, ptr %20, align 8, !tbaa !23
  %22 = zext i32 %21 to i64
  %23 = load i64, ptr %5, align 8, !tbaa !35
  %24 = icmp sgt i64 %22, %23
  br i1 %24, label %25, label %28

25:                                               ; preds = %17
  %26 = load i64, ptr %5, align 8, !tbaa !35
  %27 = trunc i64 %26 to i32
  br label %33

28:                                               ; preds = %17
  %29 = load ptr, ptr %4, align 8, !tbaa !8
  %30 = getelementptr inbounds nuw %struct.gz_state, ptr %29, i32 0, i32 0
  %31 = getelementptr inbounds nuw %struct.gzFile_s, ptr %30, i32 0, i32 0
  %32 = load i32, ptr %31, align 8, !tbaa !23
  br label %33

33:                                               ; preds = %28, %25
  %34 = phi i32 [ %27, %25 ], [ %32, %28 ]
  store i32 %34, ptr %6, align 4, !tbaa !9
  %35 = load i32, ptr %6, align 4, !tbaa !9
  %36 = load ptr, ptr %4, align 8, !tbaa !8
  %37 = getelementptr inbounds nuw %struct.gz_state, ptr %36, i32 0, i32 0
  %38 = getelementptr inbounds nuw %struct.gzFile_s, ptr %37, i32 0, i32 0
  %39 = load i32, ptr %38, align 8, !tbaa !23
  %40 = sub i32 %39, %35
  store i32 %40, ptr %38, align 8, !tbaa !23
  %41 = load i32, ptr %6, align 4, !tbaa !9
  %42 = load ptr, ptr %4, align 8, !tbaa !8
  %43 = getelementptr inbounds nuw %struct.gz_state, ptr %42, i32 0, i32 0
  %44 = getelementptr inbounds nuw %struct.gzFile_s, ptr %43, i32 0, i32 1
  %45 = load ptr, ptr %44, align 8, !tbaa !24
  %46 = zext i32 %41 to i64
  %47 = getelementptr inbounds nuw i8, ptr %45, i64 %46
  store ptr %47, ptr %44, align 8, !tbaa !24
  %48 = load i32, ptr %6, align 4, !tbaa !9
  %49 = zext i32 %48 to i64
  %50 = load ptr, ptr %4, align 8, !tbaa !8
  %51 = getelementptr inbounds nuw %struct.gz_state, ptr %50, i32 0, i32 0
  %52 = getelementptr inbounds nuw %struct.gzFile_s, ptr %51, i32 0, i32 2
  %53 = load i64, ptr %52, align 8, !tbaa !32
  %54 = add nsw i64 %53, %49
  store i64 %54, ptr %52, align 8, !tbaa !32
  %55 = load i32, ptr %6, align 4, !tbaa !9
  %56 = zext i32 %55 to i64
  %57 = load i64, ptr %5, align 8, !tbaa !35
  %58 = sub nsw i64 %57, %56
  store i64 %58, ptr %5, align 8, !tbaa !35
  br label %78

59:                                               ; preds = %11
  %60 = load ptr, ptr %4, align 8, !tbaa !8
  %61 = getelementptr inbounds nuw %struct.gz_state, ptr %60, i32 0, i32 11
  %62 = load i32, ptr %61, align 8, !tbaa !25
  %63 = icmp ne i32 %62, 0
  br i1 %63, label %64, label %71

64:                                               ; preds = %59
  %65 = load ptr, ptr %4, align 8, !tbaa !8
  %66 = getelementptr inbounds nuw %struct.gz_state, ptr %65, i32 0, i32 19
  %67 = getelementptr inbounds nuw %struct.z_stream_s, ptr %66, i32 0, i32 1
  %68 = load i32, ptr %67, align 8, !tbaa !36
  %69 = icmp eq i32 %68, 0
  br i1 %69, label %70, label %71

70:                                               ; preds = %64
  br label %79

71:                                               ; preds = %64, %59
  %72 = load ptr, ptr %4, align 8, !tbaa !8
  %73 = call i32 @gz_fetch(ptr noundef %72)
  %74 = icmp eq i32 %73, -1
  br i1 %74, label %75, label %76

75:                                               ; preds = %71
  store i32 -1, ptr %3, align 4
  store i32 1, ptr %7, align 4
  br label %80

76:                                               ; preds = %71
  br label %77

77:                                               ; preds = %76
  br label %78

78:                                               ; preds = %77, %33
  br label %8, !llvm.loop !37

79:                                               ; preds = %70, %8
  store i32 0, ptr %3, align 4
  store i32 1, ptr %7, align 4
  br label %80

80:                                               ; preds = %79, %75
  call void @llvm.lifetime.end.p0(i64 4, ptr %6) #8
  %81 = load i32, ptr %3, align 4
  ret i32 %81
}

; Function Attrs: nounwind uwtable
define i32 @MOZ_Z_gzungetc(i32 noundef %0, ptr noundef %1) #0 {
  %3 = alloca i32, align 4
  %4 = alloca i32, align 4
  %5 = alloca ptr, align 8
  %6 = alloca ptr, align 8
  %7 = alloca i32, align 4
  %8 = alloca ptr, align 8
  %9 = alloca ptr, align 8
  store i32 %0, ptr %4, align 4, !tbaa !9
  store ptr %1, ptr %5, align 8, !tbaa !3
  call void @llvm.lifetime.start.p0(i64 8, ptr %6) #8
  %10 = load ptr, ptr %5, align 8, !tbaa !3
  %11 = icmp eq ptr %10, null
  br i1 %11, label %12, label %13

12:                                               ; preds = %2
  store i32 -1, ptr %3, align 4
  store i32 1, ptr %7, align 4
  br label %171

13:                                               ; preds = %2
  %14 = load ptr, ptr %5, align 8, !tbaa !3
  store ptr %14, ptr %6, align 8, !tbaa !8
  %15 = load ptr, ptr %6, align 8, !tbaa !8
  %16 = getelementptr inbounds nuw %struct.gz_state, ptr %15, i32 0, i32 1
  %17 = load i32, ptr %16, align 8, !tbaa !13
  %18 = icmp ne i32 %17, 7247
  br i1 %18, label %29, label %19

19:                                               ; preds = %13
  %20 = load ptr, ptr %6, align 8, !tbaa !8
  %21 = getelementptr inbounds nuw %struct.gz_state, ptr %20, i32 0, i32 17
  %22 = load i32, ptr %21, align 4, !tbaa !20
  %23 = icmp ne i32 %22, 0
  br i1 %23, label %24, label %30

24:                                               ; preds = %19
  %25 = load ptr, ptr %6, align 8, !tbaa !8
  %26 = getelementptr inbounds nuw %struct.gz_state, ptr %25, i32 0, i32 17
  %27 = load i32, ptr %26, align 4, !tbaa !20
  %28 = icmp ne i32 %27, -5
  br i1 %28, label %29, label %30

29:                                               ; preds = %24, %13
  store i32 -1, ptr %3, align 4
  store i32 1, ptr %7, align 4
  br label %171

30:                                               ; preds = %24, %19
  %31 = load ptr, ptr %6, align 8, !tbaa !8
  %32 = getelementptr inbounds nuw %struct.gz_state, ptr %31, i32 0, i32 16
  %33 = load i32, ptr %32, align 8, !tbaa !21
  %34 = icmp ne i32 %33, 0
  br i1 %34, label %35, label %46

35:                                               ; preds = %30
  %36 = load ptr, ptr %6, align 8, !tbaa !8
  %37 = getelementptr inbounds nuw %struct.gz_state, ptr %36, i32 0, i32 16
  store i32 0, ptr %37, align 8, !tbaa !21
  %38 = load ptr, ptr %6, align 8, !tbaa !8
  %39 = load ptr, ptr %6, align 8, !tbaa !8
  %40 = getelementptr inbounds nuw %struct.gz_state, ptr %39, i32 0, i32 15
  %41 = load i64, ptr %40, align 8, !tbaa !22
  %42 = call i32 @gz_skip(ptr noundef %38, i64 noundef %41)
  %43 = icmp eq i32 %42, -1
  br i1 %43, label %44, label %45

44:                                               ; preds = %35
  store i32 -1, ptr %3, align 4
  store i32 1, ptr %7, align 4
  br label %171

45:                                               ; preds = %35
  br label %46

46:                                               ; preds = %45, %30
  %47 = load i32, ptr %4, align 4, !tbaa !9
  %48 = icmp slt i32 %47, 0
  br i1 %48, label %49, label %50

49:                                               ; preds = %46
  store i32 -1, ptr %3, align 4
  store i32 1, ptr %7, align 4
  br label %171

50:                                               ; preds = %46
  %51 = load ptr, ptr %6, align 8, !tbaa !8
  %52 = getelementptr inbounds nuw %struct.gz_state, ptr %51, i32 0, i32 0
  %53 = getelementptr inbounds nuw %struct.gzFile_s, ptr %52, i32 0, i32 0
  %54 = load i32, ptr %53, align 8, !tbaa !23
  %55 = icmp eq i32 %54, 0
  br i1 %55, label %56, label %88

56:                                               ; preds = %50
  %57 = load ptr, ptr %6, align 8, !tbaa !8
  %58 = getelementptr inbounds nuw %struct.gz_state, ptr %57, i32 0, i32 0
  %59 = getelementptr inbounds nuw %struct.gzFile_s, ptr %58, i32 0, i32 0
  store i32 1, ptr %59, align 8, !tbaa !23
  %60 = load ptr, ptr %6, align 8, !tbaa !8
  %61 = getelementptr inbounds nuw %struct.gz_state, ptr %60, i32 0, i32 7
  %62 = load ptr, ptr %61, align 8, !tbaa !38
  %63 = load ptr, ptr %6, align 8, !tbaa !8
  %64 = getelementptr inbounds nuw %struct.gz_state, ptr %63, i32 0, i32 4
  %65 = load i32, ptr %64, align 8, !tbaa !29
  %66 = shl i32 %65, 1
  %67 = zext i32 %66 to i64
  %68 = getelementptr inbounds nuw i8, ptr %62, i64 %67
  %69 = getelementptr inbounds i8, ptr %68, i64 -1
  %70 = load ptr, ptr %6, align 8, !tbaa !8
  %71 = getelementptr inbounds nuw %struct.gz_state, ptr %70, i32 0, i32 0
  %72 = getelementptr inbounds nuw %struct.gzFile_s, ptr %71, i32 0, i32 1
  store ptr %69, ptr %72, align 8, !tbaa !24
  %73 = load i32, ptr %4, align 4, !tbaa !9
  %74 = trunc i32 %73 to i8
  %75 = load ptr, ptr %6, align 8, !tbaa !8
  %76 = getelementptr inbounds nuw %struct.gz_state, ptr %75, i32 0, i32 0
  %77 = getelementptr inbounds nuw %struct.gzFile_s, ptr %76, i32 0, i32 1
  %78 = load ptr, ptr %77, align 8, !tbaa !24
  %79 = getelementptr inbounds i8, ptr %78, i64 0
  store i8 %74, ptr %79, align 1, !tbaa !47
  %80 = load ptr, ptr %6, align 8, !tbaa !8
  %81 = getelementptr inbounds nuw %struct.gz_state, ptr %80, i32 0, i32 0
  %82 = getelementptr inbounds nuw %struct.gzFile_s, ptr %81, i32 0, i32 2
  %83 = load i64, ptr %82, align 8, !tbaa !32
  %84 = add nsw i64 %83, -1
  store i64 %84, ptr %82, align 8, !tbaa !32
  %85 = load ptr, ptr %6, align 8, !tbaa !8
  %86 = getelementptr inbounds nuw %struct.gz_state, ptr %85, i32 0, i32 12
  store i32 0, ptr %86, align 4, !tbaa !27
  %87 = load i32, ptr %4, align 4, !tbaa !9
  store i32 %87, ptr %3, align 4
  store i32 1, ptr %7, align 4
  br label %171

88:                                               ; preds = %50
  %89 = load ptr, ptr %6, align 8, !tbaa !8
  %90 = getelementptr inbounds nuw %struct.gz_state, ptr %89, i32 0, i32 0
  %91 = getelementptr inbounds nuw %struct.gzFile_s, ptr %90, i32 0, i32 0
  %92 = load i32, ptr %91, align 8, !tbaa !23
  %93 = load ptr, ptr %6, align 8, !tbaa !8
  %94 = getelementptr inbounds nuw %struct.gz_state, ptr %93, i32 0, i32 4
  %95 = load i32, ptr %94, align 8, !tbaa !29
  %96 = shl i32 %95, 1
  %97 = icmp eq i32 %92, %96
  br i1 %97, label %98, label %100

98:                                               ; preds = %88
  %99 = load ptr, ptr %6, align 8, !tbaa !8
  call void @MOZ_Z_gz_error(ptr noundef %99, i32 noundef -3, ptr noundef @.str.1)
  store i32 -1, ptr %3, align 4
  store i32 1, ptr %7, align 4
  br label %171

100:                                              ; preds = %88
  %101 = load ptr, ptr %6, align 8, !tbaa !8
  %102 = getelementptr inbounds nuw %struct.gz_state, ptr %101, i32 0, i32 0
  %103 = getelementptr inbounds nuw %struct.gzFile_s, ptr %102, i32 0, i32 1
  %104 = load ptr, ptr %103, align 8, !tbaa !24
  %105 = load ptr, ptr %6, align 8, !tbaa !8
  %106 = getelementptr inbounds nuw %struct.gz_state, ptr %105, i32 0, i32 7
  %107 = load ptr, ptr %106, align 8, !tbaa !38
  %108 = icmp eq ptr %104, %107
  br i1 %108, label %109, label %145

109:                                              ; preds = %100
  call void @llvm.lifetime.start.p0(i64 8, ptr %8) #8
  %110 = load ptr, ptr %6, align 8, !tbaa !8
  %111 = getelementptr inbounds nuw %struct.gz_state, ptr %110, i32 0, i32 7
  %112 = load ptr, ptr %111, align 8, !tbaa !38
  %113 = load ptr, ptr %6, align 8, !tbaa !8
  %114 = getelementptr inbounds nuw %struct.gz_state, ptr %113, i32 0, i32 0
  %115 = getelementptr inbounds nuw %struct.gzFile_s, ptr %114, i32 0, i32 0
  %116 = load i32, ptr %115, align 8, !tbaa !23
  %117 = zext i32 %116 to i64
  %118 = getelementptr inbounds nuw i8, ptr %112, i64 %117
  store ptr %118, ptr %8, align 8, !tbaa !40
  call void @llvm.lifetime.start.p0(i64 8, ptr %9) #8
  %119 = load ptr, ptr %6, align 8, !tbaa !8
  %120 = getelementptr inbounds nuw %struct.gz_state, ptr %119, i32 0, i32 7
  %121 = load ptr, ptr %120, align 8, !tbaa !38
  %122 = load ptr, ptr %6, align 8, !tbaa !8
  %123 = getelementptr inbounds nuw %struct.gz_state, ptr %122, i32 0, i32 4
  %124 = load i32, ptr %123, align 8, !tbaa !29
  %125 = shl i32 %124, 1
  %126 = zext i32 %125 to i64
  %127 = getelementptr inbounds nuw i8, ptr %121, i64 %126
  store ptr %127, ptr %9, align 8, !tbaa !40
  br label %128

128:                                              ; preds = %134, %109
  %129 = load ptr, ptr %8, align 8, !tbaa !40
  %130 = load ptr, ptr %6, align 8, !tbaa !8
  %131 = getelementptr inbounds nuw %struct.gz_state, ptr %130, i32 0, i32 7
  %132 = load ptr, ptr %131, align 8, !tbaa !38
  %133 = icmp ugt ptr %129, %132
  br i1 %133, label %134, label %140

134:                                              ; preds = %128
  %135 = load ptr, ptr %8, align 8, !tbaa !40
  %136 = getelementptr inbounds i8, ptr %135, i32 -1
  store ptr %136, ptr %8, align 8, !tbaa !40
  %137 = load i8, ptr %136, align 1, !tbaa !47
  %138 = load ptr, ptr %9, align 8, !tbaa !40
  %139 = getelementptr inbounds i8, ptr %138, i32 -1
  store ptr %139, ptr %9, align 8, !tbaa !40
  store i8 %137, ptr %139, align 1, !tbaa !47
  br label %128, !llvm.loop !48

140:                                              ; preds = %128
  %141 = load ptr, ptr %9, align 8, !tbaa !40
  %142 = load ptr, ptr %6, align 8, !tbaa !8
  %143 = getelementptr inbounds nuw %struct.gz_state, ptr %142, i32 0, i32 0
  %144 = getelementptr inbounds nuw %struct.gzFile_s, ptr %143, i32 0, i32 1
  store ptr %141, ptr %144, align 8, !tbaa !24
  call void @llvm.lifetime.end.p0(i64 8, ptr %9) #8
  call void @llvm.lifetime.end.p0(i64 8, ptr %8) #8
  br label %145

145:                                              ; preds = %140, %100
  %146 = load ptr, ptr %6, align 8, !tbaa !8
  %147 = getelementptr inbounds nuw %struct.gz_state, ptr %146, i32 0, i32 0
  %148 = getelementptr inbounds nuw %struct.gzFile_s, ptr %147, i32 0, i32 0
  %149 = load i32, ptr %148, align 8, !tbaa !23
  %150 = add i32 %149, 1
  store i32 %150, ptr %148, align 8, !tbaa !23
  %151 = load ptr, ptr %6, align 8, !tbaa !8
  %152 = getelementptr inbounds nuw %struct.gz_state, ptr %151, i32 0, i32 0
  %153 = getelementptr inbounds nuw %struct.gzFile_s, ptr %152, i32 0, i32 1
  %154 = load ptr, ptr %153, align 8, !tbaa !24
  %155 = getelementptr inbounds i8, ptr %154, i32 -1
  store ptr %155, ptr %153, align 8, !tbaa !24
  %156 = load i32, ptr %4, align 4, !tbaa !9
  %157 = trunc i32 %156 to i8
  %158 = load ptr, ptr %6, align 8, !tbaa !8
  %159 = getelementptr inbounds nuw %struct.gz_state, ptr %158, i32 0, i32 0
  %160 = getelementptr inbounds nuw %struct.gzFile_s, ptr %159, i32 0, i32 1
  %161 = load ptr, ptr %160, align 8, !tbaa !24
  %162 = getelementptr inbounds i8, ptr %161, i64 0
  store i8 %157, ptr %162, align 1, !tbaa !47
  %163 = load ptr, ptr %6, align 8, !tbaa !8
  %164 = getelementptr inbounds nuw %struct.gz_state, ptr %163, i32 0, i32 0
  %165 = getelementptr inbounds nuw %struct.gzFile_s, ptr %164, i32 0, i32 2
  %166 = load i64, ptr %165, align 8, !tbaa !32
  %167 = add nsw i64 %166, -1
  store i64 %167, ptr %165, align 8, !tbaa !32
  %168 = load ptr, ptr %6, align 8, !tbaa !8
  %169 = getelementptr inbounds nuw %struct.gz_state, ptr %168, i32 0, i32 12
  store i32 0, ptr %169, align 4, !tbaa !27
  %170 = load i32, ptr %4, align 4, !tbaa !9
  store i32 %170, ptr %3, align 4
  store i32 1, ptr %7, align 4
  br label %171

171:                                              ; preds = %145, %98, %56, %49, %44, %29, %12
  call void @llvm.lifetime.end.p0(i64 8, ptr %6) #8
  %172 = load i32, ptr %3, align 4
  ret i32 %172
}