; Function Attrs: nounwind uwtable
define range(i32 -1, -2147483648) i32 @MOZ_Z_gzungetc(i32 noundef %0, ptr noundef %1) local_unnamed_addr #0 {
  %3 = icmp eq ptr %1, null
  br i1 %3, label %gz_skip.exit.thread, label %4

4:                                                ; preds = %2
  %5 = getelementptr inbounds nuw i8, ptr %1, i64 24
  %6 = load i32, ptr %5, align 8, !tbaa !3
  %.not = icmp eq i32 %6, 7247
  br i1 %.not, label %7, label %gz_skip.exit.thread

7:                                                ; preds = %4
  %8 = getelementptr inbounds nuw i8, ptr %1, i64 108
  %9 = load i32, ptr %8, align 4, !tbaa !14
  switch i32 %9, label %gz_skip.exit.thread [
    i32 0, label %10
    i32 -5, label %10
  ]

10:                                               ; preds = %7, %7
  %11 = getelementptr inbounds nuw i8, ptr %1, i64 104
  %12 = load i32, ptr %11, align 8, !tbaa !15
  %.not52 = icmp eq i32 %12, 0
  br i1 %.not52, label %43, label %13

13:                                               ; preds = %10
  store i32 0, ptr %11, align 8, !tbaa !15
  %14 = getelementptr inbounds nuw i8, ptr %1, i64 96
  %15 = load i64, ptr %14, align 8, !tbaa !16
  %16 = getelementptr inbounds nuw i8, ptr %1, i64 128
  %.not21.i = icmp eq i64 %15, 0
  br i1 %.not21.i, label %gz_skip.exit, label %.lr.ph.i

.lr.ph.i:                                         ; preds = %13
  %17 = getelementptr inbounds nuw i8, ptr %1, i64 8
  %18 = getelementptr inbounds nuw i8, ptr %1, i64 16
  %19 = getelementptr inbounds nuw i8, ptr %1, i64 80
  br label %20

20:                                               ; preds = %41, %.lr.ph.i
  %.01722.i = phi i64 [ %15, %.lr.ph.i ], [ %.1.i, %41 ]
  %21 = load i32, ptr %1, align 8, !tbaa !17
  %.not19.i = icmp eq i32 %21, 0
  br i1 %.not19.i, label %33, label %22

22:                                               ; preds = %20
  %23 = zext i32 %21 to i64
  %24 = tail call i64 @llvm.smin.i64(i64 %.01722.i, i64 %23)
  %25 = trunc i64 %24 to i32
  %26 = sub i32 %21, %25
  store i32 %26, ptr %1, align 8, !tbaa !17
  %27 = load ptr, ptr %17, align 8, !tbaa !18
  %28 = and i64 %24, 4294967295
  %29 = getelementptr inbounds nuw i8, ptr %27, i64 %28
  store ptr %29, ptr %17, align 8, !tbaa !18
  %30 = load i64, ptr %18, align 8, !tbaa !19
  %31 = add nsw i64 %30, %28
  store i64 %31, ptr %18, align 8, !tbaa !19
  %32 = sub nsw i64 %.01722.i, %28
  br label %41

33:                                               ; preds = %20
  %34 = load i32, ptr %19, align 8, !tbaa !20
  %.not20.i = icmp eq i32 %34, 0
  br i1 %.not20.i, label %38, label %35

35:                                               ; preds = %33
  %36 = load i32, ptr %16, align 8, !tbaa !21
  %37 = icmp eq i32 %36, 0
  br i1 %37, label %gz_skip.exit, label %38

38:                                               ; preds = %35, %33
  %39 = tail call fastcc i32 @gz_fetch(ptr noundef nonnull %1)
  %40 = icmp eq i32 %39, -1
  br i1 %40, label %gz_skip.exit.thread, label %41

41:                                               ; preds = %38, %22
  %.1.i = phi i64 [ %32, %22 ], [ %.01722.i, %38 ]
  %.not.i = icmp eq i64 %.1.i, 0
  br i1 %.not.i, label %gz_skip.exit, label %20, !llvm.loop !22

gz_skip.exit:                                     ; preds = %35, %41, %13
  %42 = icmp slt i32 %0, 0
  br i1 %42, label %gz_skip.exit.thread, label %44

43:                                               ; preds = %10
  %.old = icmp slt i32 %0, 0
  br i1 %.old, label %gz_skip.exit.thread, label %44

44:                                               ; preds = %gz_skip.exit, %43
  %45 = load i32, ptr %1, align 8, !tbaa !17
  %46 = icmp eq i32 %45, 0
  br i1 %46, label %47, label %62

47:                                               ; preds = %44
  store i32 1, ptr %1, align 8, !tbaa !17
  %48 = getelementptr inbounds nuw i8, ptr %1, i64 56
  %49 = load ptr, ptr %48, align 8, !tbaa !34
  %50 = getelementptr inbounds nuw i8, ptr %1, i64 40
  %51 = load i32, ptr %50, align 8, !tbaa !27
  %52 = shl i32 %51, 1
  %53 = zext i32 %52 to i64
  %54 = getelementptr inbounds nuw i8, ptr %49, i64 %53
  %55 = getelementptr inbounds i8, ptr %54, i64 -1
  %56 = getelementptr inbounds nuw i8, ptr %1, i64 8
  store ptr %55, ptr %56, align 8, !tbaa !18
  %57 = trunc i32 %0 to i8
  store i8 %57, ptr %55, align 1, !tbaa !38
  %58 = getelementptr inbounds nuw i8, ptr %1, i64 16
  %59 = load i64, ptr %58, align 8, !tbaa !19
  %60 = add nsw i64 %59, -1
  store i64 %60, ptr %58, align 8, !tbaa !19
  %61 = getelementptr inbounds nuw i8, ptr %1, i64 84
  store i32 0, ptr %61, align 4, !tbaa !25
  br label %gz_skip.exit.thread

62:                                               ; preds = %44
  %63 = getelementptr inbounds nuw i8, ptr %1, i64 40
  %64 = load i32, ptr %63, align 8, !tbaa !27
  %65 = shl i32 %64, 1
  %66 = icmp eq i32 %45, %65
  br i1 %66, label %67, label %68

67:                                               ; preds = %62
  tail call void @MOZ_Z_gz_error(ptr noundef nonnull %1, i32 noundef -3, ptr noundef nonnull @.str.1) #12
  br label %gz_skip.exit.thread

68:                                               ; preds = %62
  %69 = getelementptr inbounds nuw i8, ptr %1, i64 8
  %70 = load ptr, ptr %69, align 8, !tbaa !18
  %71 = getelementptr inbounds nuw i8, ptr %1, i64 56
  %72 = load ptr, ptr %71, align 8, !tbaa !34
  %73 = icmp eq ptr %70, %72
  br i1 %73, label %74, label %._crit_edge

74:                                               ; preds = %68
  %75 = zext i32 %45 to i64
  %76 = getelementptr inbounds nuw i8, ptr %72, i64 %75
  %77 = zext i32 %65 to i64
  %78 = getelementptr inbounds nuw i8, ptr %72, i64 %77
  %79 = icmp ugt ptr %76, %70
  br i1 %79, label %.lr.ph, label %._crit_edge

.lr.ph:                                           ; preds = %74, %.lr.ph
  %.056 = phi ptr [ %82, %.lr.ph ], [ %78, %74 ]
  %.04255 = phi ptr [ %80, %.lr.ph ], [ %76, %74 ]
  %80 = getelementptr inbounds i8, ptr %.04255, i64 -1
  %81 = load i8, ptr %80, align 1, !tbaa !38
  %82 = getelementptr inbounds i8, ptr %.056, i64 -1
  store i8 %81, ptr %82, align 1, !tbaa !38
  %83 = load ptr, ptr %71, align 8, !tbaa !34
  %84 = icmp ugt ptr %80, %83
  br i1 %84, label %.lr.ph, label %._crit_edge.loopexit, !llvm.loop !39

._crit_edge.loopexit:                             ; preds = %.lr.ph
  %.pre.pre = load i32, ptr %1, align 8, !tbaa !17
  br label %._crit_edge

._crit_edge:                                      ; preds = %74, %._crit_edge.loopexit, %68
  %85 = phi ptr [ %70, %68 ], [ %78, %74 ], [ %82, %._crit_edge.loopexit ]
  %86 = phi i32 [ %45, %68 ], [ %45, %74 ], [ %.pre.pre, %._crit_edge.loopexit ]
  %87 = add i32 %86, 1
  store i32 %87, ptr %1, align 8, !tbaa !17
  %88 = getelementptr inbounds i8, ptr %85, i64 -1
  store ptr %88, ptr %69, align 8, !tbaa !18
  %89 = trunc i32 %0 to i8
  store i8 %89, ptr %88, align 1, !tbaa !38
  %90 = getelementptr inbounds nuw i8, ptr %1, i64 16
  %91 = load i64, ptr %90, align 8, !tbaa !19
  %92 = add nsw i64 %91, -1
  store i64 %92, ptr %90, align 8, !tbaa !19
  %93 = getelementptr inbounds nuw i8, ptr %1, i64 84
  store i32 0, ptr %93, align 4, !tbaa !25
  br label %gz_skip.exit.thread

gz_skip.exit.thread:                              ; preds = %38, %43, %gz_skip.exit, %4, %7, %2, %._crit_edge, %67, %47
  %.043 = phi i32 [ %0, %47 ], [ -1, %67 ], [ %0, %._crit_edge ], [ -1, %2 ], [ -1, %7 ], [ -1, %4 ], [ -1, %gz_skip.exit ], [ -1, %43 ], [ -1, %38 ]
  ret i32 %.043
}